target datalayout = "e-m:e-p270:32:32-p271:32:32-p272:64:64-i64:64-i128:128-f80:128-n8:16:32:64-S128"
target triple = "x86_64-pc-linux-gnu"

%struct.__storeu_si128 = type { <2 x i64> }
%struct.__loadu_si128 = type { <2 x i64> }

@VP8LPredictorsAdd_C = external global [16 x ptr], align 16

; Function Attrs: alwaysinline nounwind uwtable
define internal void @_mm_storeu_si128(ptr noundef %0, <2 x i64> noundef %1) #4 {
  %3 = alloca ptr, align 8
  %4 = alloca <2 x i64>, align 16
  store ptr %0, ptr %3, align 8, !tbaa !3
  store <2 x i64> %1, ptr %4, align 16, !tbaa !11
  %5 = load <2 x i64>, ptr %4, align 16, !tbaa !11
  %6 = load ptr, ptr %3, align 8, !tbaa !3
  %7 = getelementptr inbounds nuw %struct.__storeu_si128, ptr %6, i32 0, i32 0
  store <2 x i64> %5, ptr %7, align 1, !tbaa !11
  ret void
}

; Function Attrs: alwaysinline nounwind uwtable
define internal <2 x i64> @_mm_add_epi8(<2 x i64> noundef %0, <2 x i64> noundef %1) #4 {
  %3 = alloca <2 x i64>, align 16
  %4 = alloca <2 x i64>, align 16
  store <2 x i64> %0, ptr %3, align 16, !tbaa !11
  store <2 x i64> %1, ptr %4, align 16, !tbaa !11
  %5 = load <2 x i64>, ptr %3, align 16, !tbaa !11
  %6 = bitcast <2 x i64> %5 to <16 x i8>
  %7 = load <2 x i64>, ptr %4, align 16, !tbaa !11
  %8 = bitcast <2 x i64> %7 to <16 x i8>
  %9 = add <16 x i8> %6, %8
  %10 = bitcast <16 x i8> %9 to <2 x i64>
  ret <2 x i64> %10
}

; Function Attrs: alwaysinline nounwind uwtable
define internal <2 x i64> @_mm_loadu_si128(ptr noundef %0) #4 {
  %2 = alloca ptr, align 8
  store ptr %0, ptr %2, align 8, !tbaa !3
  %3 = load ptr, ptr %2, align 8, !tbaa !3
  %4 = getelementptr inbounds nuw %struct.__loadu_si128, ptr %3, i32 0, i32 0
  %5 = load <2 x i64>, ptr %4, align 1, !tbaa !11
  ret <2 x i64> %5
}

; Function Attrs: nounwind uwtable
define internal void @PredictorAdd2_SSE2(ptr noundef %0, ptr noundef %1, i32 noundef %2, ptr noalias noundef %3) #1 {
  %5 = alloca ptr, align 8
  %6 = alloca ptr, align 8
  %7 = alloca i32, align 4
  %8 = alloca ptr, align 8
  %9 = alloca i32, align 4
  %10 = alloca <2 x i64>, align 16
  %11 = alloca <2 x i64>, align 16
  %12 = alloca <2 x i64>, align 16
  store ptr %0, ptr %5, align 8, !tbaa !7
  store ptr %1, ptr %6, align 8, !tbaa !7
  store i32 %2, ptr %7, align 4, !tbaa !9
  store ptr %3, ptr %8, align 8, !tbaa !7
  call void @llvm.lifetime.start.p0(i64 4, ptr %9) #9
  store i32 0, ptr %9, align 4, !tbaa !9
  br label %13

13:                                               ; preds = %37, %4
  %14 = load i32, ptr %9, align 4, !tbaa !9
  %15 = add nsw i32 %14, 4
  %16 = load i32, ptr %7, align 4, !tbaa !9
  %17 = icmp sle i32 %15, %16
  br i1 %17, label %18, label %40

18:                                               ; preds = %13
  call void @llvm.lifetime.start.p0(i64 16, ptr %10) #9
  %19 = load ptr, ptr %5, align 8, !tbaa !7
  %20 = load i32, ptr %9, align 4, !tbaa !9
  %21 = sext i32 %20 to i64
  %22 = getelementptr inbounds i32, ptr %19, i64 %21
  %23 = call <2 x i64> @_mm_loadu_si128(ptr noundef %22)
  store <2 x i64> %23, ptr %10, align 16, !tbaa !11
  call void @llvm.lifetime.start.p0(i64 16, ptr %11) #9
  %24 = load ptr, ptr %6, align 8, !tbaa !7
  %25 = load i32, ptr %9, align 4, !tbaa !9
  %26 = sext i32 %25 to i64
  %27 = getelementptr inbounds i32, ptr %24, i64 %26
  %28 = call <2 x i64> @_mm_loadu_si128(ptr noundef %27)
  store <2 x i64> %28, ptr %11, align 16, !tbaa !11
  call void @llvm.lifetime.start.p0(i64 16, ptr %12) #9
  %29 = load <2 x i64>, ptr %10, align 16, !tbaa !11
  %30 = load <2 x i64>, ptr %11, align 16, !tbaa !11
  %31 = call <2 x i64> @_mm_add_epi8(<2 x i64> noundef %29, <2 x i64> noundef %30)
  store <2 x i64> %31, ptr %12, align 16, !tbaa !11
  %32 = load ptr, ptr %8, align 8, !tbaa !7
  %33 = load i32, ptr %9, align 4, !tbaa !9
  %34 = sext i32 %33 to i64
  %35 = getelementptr inbounds i32, ptr %32, i64 %34
  %36 = load <2 x i64>, ptr %12, align 16, !tbaa !11
  call void @_mm_storeu_si128(ptr noundef %35, <2 x i64> noundef %36)
  call void @llvm.lifetime.end.p0(i64 16, ptr %12) #9
  call void @llvm.lifetime.end.p0(i64 16, ptr %11) #9
  call void @llvm.lifetime.end.p0(i64 16, ptr %10) #9
  br label %37

37:                                               ; preds = %18
  %38 = load i32, ptr %9, align 4, !tbaa !9
  %39 = add nsw i32 %38, 4
  store i32 %39, ptr %9, align 4, !tbaa !9
  br label %13, !llvm.loop !15

40:                                               ; preds = %13
  %41 = load i32, ptr %9, align 4, !tbaa !9
  %42 = load i32, ptr %7, align 4, !tbaa !9
  %43 = icmp ne i32 %41, %42
  br i1 %43, label %44, label %61

44:                                               ; preds = %40
  %45 = load ptr, ptr getelementptr inbounds ([16 x ptr], ptr @VP8LPredictorsAdd_C, i64 0, i64 2), align 16, !tbaa !3
  %46 = load ptr, ptr %5, align 8, !tbaa !7
  %47 = load i32, ptr %9, align 4, !tbaa !9
  %48 = sext i32 %47 to i64
  %49 = getelementptr inbounds i32, ptr %46, i64 %48
  %50 = load ptr, ptr %6, align 8, !tbaa !7
  %51 = load i32, ptr %9, align 4, !tbaa !9
  %52 = sext i32 %51 to i64
  %53 = getelementptr inbounds i32, ptr %50, i64 %52
  %54 = load i32, ptr %7, align 4, !tbaa !9
  %55 = load i32, ptr %9, align 4, !tbaa !9
  %56 = sub nsw i32 %54, %55
  %57 = load ptr, ptr %8, align 8, !tbaa !7
  %58 = load i32, ptr %9, align 4, !tbaa !9
  %59 = sext i32 %58 to i64
  %60 = getelementptr inbounds i32, ptr %57, i64 %59
  call void %45(ptr noundef %49, ptr noundef %53, i32 noundef %56, ptr noundef %60)
  br label %61

61:                                               ; preds = %44, %40
  call void @llvm.lifetime.end.p0(i64 4, ptr %9) #9
  ret void
}